target datalayout = "e-m:e-p270:32:32-p271:32:32-p272:64:64-i64:64-i128:128-f80:128-n8:16:32:64-S128"
target triple = "x86_64-pc-linux-gnu"

%union.pthread_mutex_t = type { %struct.__pthread_mutex_s }
%struct.__pthread_mutex_s = type { i32, i32, i32, i32, i32, i16, i16, %struct.__pthread_internal_list }
%struct.__pthread_internal_list = type { ptr, ptr }
%union.pthread_attr_t = type { i64, [48 x i8] }

@power_save_enabled = dso_local global i8 0, align 1
@power_save_started = dso_local global i8 0, align 1
@power_mutex = internal global %union.pthread_mutex_t zeroinitializer, align 8
@.str.7 = private unnamed_addr constant [29 x i8] c"%s: pthread_mutex_lock(): %m\00", align 1
@.str.12 = private unnamed_addr constant [31 x i8] c"%s: pthread_mutex_unlock(): %m\00", align 1
@__func__.power_save_init = private unnamed_addr constant [16 x i8] c"power_save_init\00", align 1
@power_thread = internal global i64 0, align 8
@.str.13 = private unnamed_addr constant [23 x i8] c"%s: pthread_join(): %m\00", align 1
@.str.14 = private unnamed_addr constant [22 x i8] c"pthread_attr_init: %m\00", align 1
@.str.15 = private unnamed_addr constant [26 x i8] c"pthread_attr_setscope: %m\00", align 1
@.str.16 = private unnamed_addr constant [30 x i8] c"pthread_attr_setstacksize: %m\00", align 1
@.str.17 = private unnamed_addr constant [28 x i8] c"%s: pthread_create error %m\00", align 1
@.str.18 = private unnamed_addr constant [55 x i8] c"pthread_attr_destroy failed, possible memory leak!: %m\00", align 1

; Function Attrs: nounwind uwtable
define dso_local void @power_save_init() #0 {
  %1 = alloca i32, align 4
  %2 = alloca i32, align 4
  %3 = alloca i32, align 4
  %4 = alloca i32, align 4
  %5 = alloca i32, align 4
  %6 = alloca %union.pthread_attr_t, align 8
  %7 = alloca i32, align 4
  %8 = alloca i32, align 4
  %9 = alloca i32, align 4
  br label %10

10:                                               ; preds = %0
  call void @llvm.lifetime.start.p0(i64 4, ptr %1) #9
  %11 = call i32 @pthread_mutex_lock(ptr noundef @power_mutex) #9
  store i32 %11, ptr %1, align 4
  %12 = load i32, ptr %1, align 4
  %13 = icmp ne i32 %12, 0
  br i1 %13, label %14, label %17

14:                                               ; preds = %10
  %15 = load i32, ptr %1, align 4
  %16 = call ptr @__errno_location() #11
  store i32 %15, ptr %16, align 4
  call void (ptr, ...) @fatal_abort(ptr noundef @.str.7, ptr noundef @__func__.power_save_init) #12
  unreachable

17:                                               ; preds = %10
  call void @llvm.lifetime.end.p0(i64 4, ptr %1) #9
  br label %18

18:                                               ; preds = %17
  %19 = load i8, ptr @power_save_started, align 1, !range !11, !noundef !12
  %20 = trunc i8 %19 to i1
  br i1 %20, label %24, label %21

21:                                               ; preds = %18
  %22 = load i8, ptr @power_save_enabled, align 1, !range !11, !noundef !12
  %23 = trunc i8 %22 to i1
  br i1 %23, label %65, label %24

24:                                               ; preds = %21, %18
  %25 = load i8, ptr @power_save_enabled, align 1, !range !11, !noundef !12
  %26 = trunc i8 %25 to i1
  br i1 %26, label %55, label %27

27:                                               ; preds = %24
  %28 = load i64, ptr @power_thread, align 8
  %29 = icmp ne i64 %28, 0
  br i1 %29, label %30, label %55

30:                                               ; preds = %27
  br label %31

31:                                               ; preds = %30
  call void @llvm.lifetime.start.p0(i64 4, ptr %2) #9
  %32 = call i32 @pthread_mutex_unlock(ptr noundef @power_mutex) #9
  store i32 %32, ptr %2, align 4
  %33 = load i32, ptr %2, align 4
  %34 = icmp ne i32 %33, 0
  br i1 %34, label %35, label %38

35:                                               ; preds = %31
  %36 = load i32, ptr %2, align 4
  %37 = call ptr @__errno_location() #11
  store i32 %36, ptr %37, align 4
  call void (ptr, ...) @fatal_abort(ptr noundef @.str.12, ptr noundef @__func__.power_save_init) #12
  unreachable

38:                                               ; preds = %31
  call void @llvm.lifetime.end.p0(i64 4, ptr %2) #9
  br label %39

39:                                               ; preds = %38
  br label %40

40:                                               ; preds = %39
  call void @llvm.lifetime.start.p0(i64 4, ptr %3) #9
  store i32 0, ptr %3, align 4
  %41 = load i64, ptr @power_thread, align 8
  %42 = icmp ne i64 %41, 0
  br i1 %42, label %43, label %46

43:                                               ; preds = %40
  %44 = load i64, ptr @power_thread, align 8
  %45 = call i32 @pthread_join(i64 noundef %44, ptr noundef null)
  store i32 %45, ptr %3, align 4
  store i64 0, ptr @power_thread, align 8
  br label %46

46:                                               ; preds = %43, %40
  %47 = load i32, ptr %3, align 4
  %48 = icmp ne i32 %47, 0
  br i1 %48, label %49, label %53

49:                                               ; preds = %46
  %50 = load i32, ptr %3, align 4
  %51 = call ptr @__errno_location() #11
  store i32 %50, ptr %51, align 4
  %52 = call i32 (ptr, ...) @error(ptr noundef @.str.13, ptr noundef @__func__.power_save_init)
  br label %53

53:                                               ; preds = %49, %46
  call void @llvm.lifetime.end.p0(i64 4, ptr %3) #9
  br label %54

54:                                               ; preds = %53
  br label %120

55:                                               ; preds = %27, %24
  br label %56

56:                                               ; preds = %55
  call void @llvm.lifetime.start.p0(i64 4, ptr %4) #9
  %57 = call i32 @pthread_mutex_unlock(ptr noundef @power_mutex) #9
  store i32 %57, ptr %4, align 4
  %58 = load i32, ptr %4, align 4
  %59 = icmp ne i32 %58, 0
  br i1 %59, label %60, label %63

60:                                               ; preds = %56
  %61 = load i32, ptr %4, align 4
  %62 = call ptr @__errno_location() #11
  store i32 %61, ptr %62, align 4
  call void (ptr, ...) @fatal_abort(ptr noundef @.str.12, ptr noundef @__func__.power_save_init) #12
  unreachable

63:                                               ; preds = %56
  call void @llvm.lifetime.end.p0(i64 4, ptr %4) #9
  br label %64

64:                                               ; preds = %63
  br label %120

65:                                               ; preds = %21
  store i8 1, ptr @power_save_started, align 1
  br label %66

66:                                               ; preds = %65
  call void @llvm.lifetime.start.p0(i64 4, ptr %5) #9
  %67 = call i32 @pthread_mutex_unlock(ptr noundef @power_mutex) #9
  store i32 %67, ptr %5, align 4
  %68 = load i32, ptr %5, align 4
  %69 = icmp ne i32 %68, 0
  br i1 %69, label %70, label %73

70:                                               ; preds = %66
  %71 = load i32, ptr %5, align 4
  %72 = call ptr @__errno_location() #11
  store i32 %71, ptr %72, align 4
  call void (ptr, ...) @fatal_abort(ptr noundef @.str.12, ptr noundef @__func__.power_save_init) #12
  unreachable

73:                                               ; preds = %66
  call void @llvm.lifetime.end.p0(i64 4, ptr %5) #9
  br label %74

74:                                               ; preds = %73
  br label %75

75:                                               ; preds = %74
  call void @llvm.lifetime.start.p0(i64 56, ptr %6) #9
  call void @llvm.lifetime.start.p0(i64 4, ptr %7) #9
  br label %76

76:                                               ; preds = %75
  call void @llvm.lifetime.start.p0(i64 4, ptr %8) #9
  %77 = call i32 @pthread_attr_init(ptr noundef %6) #9
  store i32 %77, ptr %8, align 4
  %78 = load i32, ptr %8, align 4
  %79 = icmp ne i32 %78, 0
  br i1 %79, label %80, label %83

80:                                               ; preds = %76
  %81 = load i32, ptr %8, align 4
  %82 = call ptr @__errno_location() #11
  store i32 %81, ptr %82, align 4
  call void (ptr, ...) @fatal(ptr noundef @.str.14) #12
  unreachable

83:                                               ; preds = %76
  %84 = call i32 @pthread_attr_setscope(ptr noundef %6, i32 noundef 0) #9
  store i32 %84, ptr %8, align 4
  %85 = load i32, ptr %8, align 4
  %86 = icmp ne i32 %85, 0
  br i1 %86, label %87, label %91

87:                                               ; preds = %83
  %88 = load i32, ptr %8, align 4
  %89 = call ptr @__errno_location() #11
  store i32 %88, ptr %89, align 4
  %90 = call i32 (ptr, ...) @error(ptr noundef @.str.15)
  br label %91

91:                                               ; preds = %87, %83
  %92 = call i32 @pthread_attr_setstacksize(ptr noundef %6, i64 noundef 1048576) #9
  store i32 %92, ptr %8, align 4
  %93 = load i32, ptr %8, align 4
  %94 = icmp ne i32 %93, 0
  br i1 %94, label %95, label %99

95:                                               ; preds = %91
  %96 = load i32, ptr %8, align 4
  %97 = call ptr @__errno_location() #11
  store i32 %96, ptr %97, align 4
  %98 = call i32 (ptr, ...) @error(ptr noundef @.str.16)
  br label %99

99:                                               ; preds = %95, %91
  call void @llvm.lifetime.end.p0(i64 4, ptr %8) #9
  br label %100

100:                                              ; preds = %99
  br label %101

101:                                              ; preds = %100
  %102 = call i32 @pthread_create(ptr noundef @power_thread, ptr noundef %6, ptr noundef @_power_save_thread, ptr noundef null) #9
  store i32 %102, ptr %7, align 4
  %103 = load i32, ptr %7, align 4
  %104 = icmp ne i32 %103, 0
  br i1 %104, label %105, label %108

105:                                              ; preds = %101
  %106 = load i32, ptr %7, align 4
  %107 = call ptr @__errno_location() #11
  store i32 %106, ptr %107, align 4
  call void (ptr, ...) @fatal(ptr noundef @.str.17, ptr noundef @__func__.power_save_init) #12
  unreachable

108:                                              ; preds = %101
  br label %109

109:                                              ; preds = %108
  call void @llvm.lifetime.start.p0(i64 4, ptr %9) #9
  %110 = call i32 @pthread_attr_destroy(ptr noundef %6) #9
  store i32 %110, ptr %9, align 4
  %111 = load i32, ptr %9, align 4
  %112 = icmp ne i32 %111, 0
  br i1 %112, label %113, label %117

113:                                              ; preds = %109
  %114 = load i32, ptr %9, align 4
  %115 = call ptr @__errno_location() #11
  store i32 %114, ptr %115, align 4
  %116 = call i32 (ptr, ...) @error(ptr noundef @.str.18)
  br label %117

117:                                              ; preds = %113, %109
  call void @llvm.lifetime.end.p0(i64 4, ptr %9) #9
  br label %118

118:                                              ; preds = %117
  br label %119

119:                                              ; preds = %118
  call void @llvm.lifetime.end.p0(i64 4, ptr %7) #9
  call void @llvm.lifetime.end.p0(i64 56, ptr %6) #9
  br label %120

120:                                              ; preds = %54, %64, %119
  ret void
}