; Function Attrs: nounwind uwtable
define dso_local void @power_save_init() local_unnamed_addr #0 {
  %1 = alloca %union.pthread_attr_t, align 8
  %2 = tail call i32 @pthread_mutex_lock(ptr noundef nonnull @power_mutex) #12
  %.not31 = icmp eq i32 %2, 0
  br i1 %.not31, label %5, label %3

3:                                                ; preds = %0
  %4 = tail call ptr @__errno_location() #14
  store i32 %2, ptr %4, align 4
  tail call void (ptr, ...) @fatal_abort(ptr noundef nonnull @.str.7, ptr noundef nonnull @__func__.power_save_init) #15
  unreachable

5:                                                ; preds = %0
  %6 = load i8, ptr @power_save_started, align 1, !range !13, !noundef !14
  %7 = trunc nuw i8 %6 to i1
  %.pre = load i8, ptr @power_save_enabled, align 1, !range !13
  %.pre44 = trunc nuw i8 %.pre to i1
  %.pre44.not = xor i1 %.pre44, true
  %brmerge = select i1 %7, i1 true, i1 %.pre44.not
  br i1 %brmerge, label %._crit_edge, label %24

._crit_edge:                                      ; preds = %5
  %.pre44.mux = select i1 %7, i1 %.pre44, i1 false
  %8 = load i64, ptr @power_thread, align 8
  %9 = icmp eq i64 %8, 0
  %or.cond.not = select i1 %.pre44.mux, i1 true, i1 %9
  %10 = tail call i32 @pthread_mutex_unlock(ptr noundef nonnull @power_mutex) #12
  %.not = icmp eq i32 %10, 0
  br i1 %or.cond.not, label %21, label %11

11:                                               ; preds = %._crit_edge
  br i1 %.not, label %14, label %12

12:                                               ; preds = %11
  %13 = tail call ptr @__errno_location() #14
  store i32 %10, ptr %13, align 4
  tail call void (ptr, ...) @fatal_abort(ptr noundef nonnull @.str.12, ptr noundef nonnull @__func__.power_save_init) #15
  unreachable

14:                                               ; preds = %11
  %15 = load i64, ptr @power_thread, align 8
  %.not40 = icmp eq i64 %15, 0
  br i1 %.not40, label %.thread, label %16

16:                                               ; preds = %14
  %17 = tail call i32 @pthread_join(i64 noundef %15, ptr noundef null) #12
  store i64 0, ptr @power_thread, align 8
  %.not41 = icmp eq i32 %17, 0
  br i1 %.not41, label %.thread, label %18

18:                                               ; preds = %16
  %19 = tail call ptr @__errno_location() #14
  store i32 %17, ptr %19, align 4
  %20 = tail call i32 (ptr, ...) @error(ptr noundef nonnull @.str.13, ptr noundef nonnull @__func__.power_save_init) #12
  br label %.thread

21:                                               ; preds = %._crit_edge
  br i1 %.not, label %.thread, label %22

22:                                               ; preds = %21
  %23 = tail call ptr @__errno_location() #14
  store i32 %10, ptr %23, align 4
  tail call void (ptr, ...) @fatal_abort(ptr noundef nonnull @.str.12, ptr noundef nonnull @__func__.power_save_init) #15
  unreachable

24:                                               ; preds = %5
  store i8 1, ptr @power_save_started, align 1
  %25 = tail call i32 @pthread_mutex_unlock(ptr noundef nonnull @power_mutex) #12
  %.not32 = icmp eq i32 %25, 0
  br i1 %.not32, label %28, label %26

26:                                               ; preds = %24
  %27 = tail call ptr @__errno_location() #14
  store i32 %25, ptr %27, align 4
  tail call void (ptr, ...) @fatal_abort(ptr noundef nonnull @.str.12, ptr noundef nonnull @__func__.power_save_init) #15
  unreachable

28:                                               ; preds = %24
  call void @llvm.lifetime.start.p0(i64 56, ptr nonnull %1) #12
  %29 = call i32 @pthread_attr_init(ptr noundef nonnull %1) #12
  %.not33 = icmp eq i32 %29, 0
  br i1 %.not33, label %32, label %30

30:                                               ; preds = %28
  %31 = tail call ptr @__errno_location() #14
  store i32 %29, ptr %31, align 4
  call void (ptr, ...) @fatal(ptr noundef nonnull @.str.14) #15
  unreachable

32:                                               ; preds = %28
  %33 = call i32 @pthread_attr_setscope(ptr noundef nonnull %1, i32 noundef 0) #12
  %.not34 = icmp eq i32 %33, 0
  br i1 %.not34, label %37, label %34

34:                                               ; preds = %32
  %35 = tail call ptr @__errno_location() #14
  store i32 %33, ptr %35, align 4
  %36 = call i32 (ptr, ...) @error(ptr noundef nonnull @.str.15) #12
  br label %37

37:                                               ; preds = %34, %32
  %38 = call i32 @pthread_attr_setstacksize(ptr noundef nonnull %1, i64 noundef 1048576) #12
  %.not35 = icmp eq i32 %38, 0
  br i1 %.not35, label %42, label %39

39:                                               ; preds = %37
  %40 = tail call ptr @__errno_location() #14
  store i32 %38, ptr %40, align 4
  %41 = call i32 (ptr, ...) @error(ptr noundef nonnull @.str.16) #12
  br label %42

42:                                               ; preds = %39, %37
  %43 = call i32 @pthread_create(ptr noundef nonnull @power_thread, ptr noundef nonnull %1, ptr noundef nonnull @_power_save_thread, ptr noundef null) #12
  %.not36 = icmp eq i32 %43, 0
  br i1 %.not36, label %46, label %44

44:                                               ; preds = %42
  %45 = tail call ptr @__errno_location() #14
  store i32 %43, ptr %45, align 4
  call void (ptr, ...) @fatal(ptr noundef nonnull @.str.17, ptr noundef nonnull @__func__.power_save_init) #15
  unreachable

46:                                               ; preds = %42
  %47 = call i32 @pthread_attr_destroy(ptr noundef nonnull %1) #12
  %.not37 = icmp eq i32 %47, 0
  br i1 %.not37, label %51, label %48

48:                                               ; preds = %46
  %49 = tail call ptr @__errno_location() #14
  store i32 %47, ptr %49, align 4
  %50 = call i32 (ptr, ...) @error(ptr noundef nonnull @.str.18) #12
  br label %51

51:                                               ; preds = %48, %46
  call void @llvm.lifetime.end.p0(i64 56, ptr nonnull %1) #12
  br label %.thread

.thread:                                          ; preds = %14, %21, %16, %18, %51
  ret void
}